target datalayout = "e-m:e-p270:32:32-p271:32:32-p272:64:64-i64:64-i128:128-f80:128-n8:16:32:64-S128"
target triple = "x86_64-pc-linux-gnu"

%class.GenDCmdArgument.base = type <{ ptr, ptr, ptr, ptr, ptr, ptr, i8, i8, i8 }>
%class.DCmdArgument.0 = type { %class.GenDCmdArgument.base, %class.MemorySizeArgument }
%class.MemorySizeArgument = type { i64, i64, i8 }
%class.DCmdArgument.1 = type { %class.GenDCmdArgument.base, i64 }
%class.LogTagSet = type { ptr, i64, [5 x i32], [4 x i8], %class.LogOutputList, %class.LogDecorators, ptr }
%class.LogOutputList = type <{ [6 x ptr], i32, [4 x i8] }>
%class.LogDecorators = type { i32 }
%class.GenDCmdArgument = type <{ ptr, ptr, ptr, ptr, ptr, ptr, i8, i8, i8, [5 x i8] }>

@_ZL17specified_val_msg = internal constant [28 x i8] c"Value specified for option \00", align 16
@_ZL15default_val_msg = internal constant [26 x i8] c"Value default for option \00", align 16
@_ZN16LogTagSetMappingILN6LogTag4typeE5ELS1_0ELS1_0ELS1_0ELS1_0ELS1_0EE7_tagsetE = linkonce_odr hidden global %class.LogTagSet zeroinitializer, comdat, align 8
@.str.83 = private unnamed_addr constant [39 x i8] c"Value specified for option \22%s\22 is %ld\00", align 1
@.str.98 = private unnamed_addr constant [16 x i8] c"%s\22%s\22 is %lu%c\00", align 1
@.str.99 = private unnamed_addr constant [14 x i8] c"%s\22%s\22 is %lu\00", align 1
@.str.100 = private unnamed_addr constant [86 x i8] c"These values are causing an ambiguity when trying to determine how much memory to use\00", align 1
@.str.101 = private unnamed_addr constant [30 x i8] c"\22%s\22 * \22%s\22 do not equal \22%s\22\00", align 1
@.str.102 = private unnamed_addr constant [76 x i8] c"Try to remove one of the involved options or make sure they are unambiguous\00", align 1

; Function Attrs: mustprogress nounwind uwtable
define linkonce_odr hidden noundef zeroext i1 @_ZNK13LogOutputList8is_levelEN8LogLevel4typeE(ptr noundef nonnull align 8 dereferenceable(52) %0, i32 noundef %1) #1 comdat align 2 {
  %3 = alloca ptr, align 8
  %4 = alloca i32, align 4
  store ptr %0, ptr %3, align 8
  store i32 %1, ptr %4, align 4
  %5 = load ptr, ptr %3, align 8
  %6 = getelementptr inbounds %class.LogOutputList, ptr %5, i32 0, i32 0
  %7 = load i32, ptr %4, align 4
  %8 = zext i32 %7 to i64
  %9 = getelementptr inbounds [6 x ptr], ptr %6, i64 0, i64 %8
  %10 = load volatile ptr, ptr %9, align 8
  %11 = icmp ne ptr %10, null
  ret i1 %11
}

; Function Attrs: mustprogress nounwind uwtable
define linkonce_odr hidden noundef zeroext i1 @_ZNK9LogTagSet8is_levelEN8LogLevel4typeE(ptr noundef nonnull align 8 dereferenceable(112) %0, i32 noundef %1) #1 comdat align 2 {
  %3 = alloca ptr, align 8
  %4 = alloca i32, align 4
  store ptr %0, ptr %3, align 8
  store i32 %1, ptr %4, align 4
  %5 = load ptr, ptr %3, align 8
  %6 = getelementptr inbounds %class.LogTagSet, ptr %5, i32 0, i32 4
  %7 = load i32, ptr %4, align 4
  %8 = call noundef zeroext i1 @_ZNK13LogOutputList8is_levelEN8LogLevel4typeE(ptr noundef nonnull align 8 dereferenceable(52) %6, i32 noundef %7)
  ret i1 %8
}

; Function Attrs: mustprogress nounwind uwtable
define linkonce_odr hidden noundef nonnull align 8 dereferenceable(112) ptr @_ZN16LogTagSetMappingILN6LogTag4typeE5ELS1_0ELS1_0ELS1_0ELS1_0ELS1_0EE6tagsetEv() #1 comdat align 2 {
  ret ptr @_ZN16LogTagSetMappingILN6LogTag4typeE5ELS1_0ELS1_0ELS1_0ELS1_0ELS1_0EE7_tagsetE
}

; Function Attrs: mustprogress nounwind uwtable
define linkonce_odr hidden noundef zeroext i1 @_ZNK15GenDCmdArgument6is_setEv(ptr noundef nonnull align 8 dereferenceable(51) %0) #1 comdat align 2 {
  %2 = alloca ptr, align 8
  store ptr %0, ptr %2, align 8
  %3 = load ptr, ptr %2, align 8
  %4 = getelementptr inbounds %class.GenDCmdArgument, ptr %3, i32 0, i32 6
  %5 = load i8, ptr %4, align 8
  %6 = trunc i8 %5 to i1
  ret i1 %6
}

; Function Attrs: mustprogress nounwind uwtable
define linkonce_odr hidden noundef ptr @_ZNK15GenDCmdArgument4nameEv(ptr noundef nonnull align 8 dereferenceable(51) %0) #1 comdat align 2 {
  %2 = alloca ptr, align 8
  store ptr %0, ptr %2, align 8
  %3 = load ptr, ptr %2, align 8
  %4 = getelementptr inbounds %class.GenDCmdArgument, ptr %3, i32 0, i32 2
  %5 = load ptr, ptr %4, align 8
  ret ptr %5
}

; Function Attrs: mustprogress nounwind uwtable
define linkonce_odr hidden noundef zeroext i1 @_ZN7LogImplILN6LogTag4typeE5ELS1_0ELS1_0ELS1_0ELS1_0ELS1_0EE8is_levelEN8LogLevel4typeE(i32 noundef %0) #1 comdat align 2 {
  %2 = alloca i32, align 4
  store i32 %0, ptr %2, align 4
  %3 = call noundef nonnull align 8 dereferenceable(112) ptr @_ZN16LogTagSetMappingILN6LogTag4typeE5ELS1_0ELS1_0ELS1_0ELS1_0ELS1_0EE6tagsetEv()
  %4 = load i32, ptr %2, align 4
  %5 = call noundef zeroext i1 @_ZNK9LogTagSet8is_levelEN8LogLevel4typeE(ptr noundef nonnull align 8 dereferenceable(112) %3, i32 noundef %4)
  ret i1 %5
}

; Function Attrs: mustprogress nounwind uwtable
define internal void @_ZL13log_set_valueI12DCmdArgumentI18MemorySizeArgumentEEvRT_(ptr noundef nonnull align 8 dereferenceable(80) %0) #1 {
  %2 = alloca ptr, align 8
  %3 = alloca %class.MemorySizeArgument, align 8
  %4 = alloca %class.MemorySizeArgument, align 8
  %5 = alloca %class.MemorySizeArgument, align 8
  %6 = alloca %class.MemorySizeArgument, align 8
  %7 = alloca %class.MemorySizeArgument, align 8
  store ptr %0, ptr %2, align 8
  %8 = load ptr, ptr %2, align 8
  call void @_ZNK12DCmdArgumentI18MemorySizeArgumentE5valueEv(ptr dead_on_unwind writable sret(%class.MemorySizeArgument) align 8 %3, ptr noundef nonnull align 8 dereferenceable(80) %8)
  %9 = getelementptr inbounds %class.MemorySizeArgument, ptr %3, i32 0, i32 0
  %10 = load i64, ptr %9, align 8
  %11 = load ptr, ptr %2, align 8
  call void @_ZNK12DCmdArgumentI18MemorySizeArgumentE5valueEv(ptr dead_on_unwind writable sret(%class.MemorySizeArgument) align 8 %4, ptr noundef nonnull align 8 dereferenceable(80) %11)
  %12 = getelementptr inbounds %class.MemorySizeArgument, ptr %4, i32 0, i32 1
  %13 = load i64, ptr %12, align 8
  %14 = icmp ne i64 %10, %13
  br i1 %14, label %15, label %32

15:                                               ; preds = %1
  %16 = call noundef zeroext i1 @_ZN7LogImplILN6LogTag4typeE5ELS1_0ELS1_0ELS1_0ELS1_0ELS1_0EE8is_levelEN8LogLevel4typeE(i32 noundef 5)
  br i1 %16, label %18, label %17

17:                                               ; preds = %15
  br label %31

18:                                               ; preds = %15
  %19 = load ptr, ptr %2, align 8
  %20 = call noundef zeroext i1 @_ZNK15GenDCmdArgument6is_setEv(ptr noundef nonnull align 8 dereferenceable(51) %19)
  %21 = select i1 %20, ptr @_ZL17specified_val_msg, ptr @_ZL15default_val_msg
  %22 = load ptr, ptr %2, align 8
  %23 = call noundef ptr @_ZNK15GenDCmdArgument4nameEv(ptr noundef nonnull align 8 dereferenceable(51) %22)
  %24 = load ptr, ptr %2, align 8
  call void @_ZNK12DCmdArgumentI18MemorySizeArgumentE5valueEv(ptr dead_on_unwind writable sret(%class.MemorySizeArgument) align 8 %5, ptr noundef nonnull align 8 dereferenceable(80) %24)
  %25 = getelementptr inbounds %class.MemorySizeArgument, ptr %5, i32 0, i32 1
  %26 = load i64, ptr %25, align 8
  %27 = load ptr, ptr %2, align 8
  call void @_ZNK12DCmdArgumentI18MemorySizeArgumentE5valueEv(ptr dead_on_unwind writable sret(%class.MemorySizeArgument) align 8 %6, ptr noundef nonnull align 8 dereferenceable(80) %27)
  %28 = getelementptr inbounds %class.MemorySizeArgument, ptr %6, i32 0, i32 2
  %29 = load i8, ptr %28, align 8
  %30 = sext i8 %29 to i32
  call void (ptr, ...) @_ZN7LogImplILN6LogTag4typeE5ELS1_0ELS1_0ELS1_0ELS1_0ELS1_0EE5writeILN8LogLevel4typeE5EEEvPKcz(ptr noundef @.str.98, ptr noundef %21, ptr noundef %23, i64 noundef %26, i32 noundef %30)
  br label %31

31:                                               ; preds = %18, %17
  br label %44

32:                                               ; preds = %1
  %33 = call noundef zeroext i1 @_ZN7LogImplILN6LogTag4typeE5ELS1_0ELS1_0ELS1_0ELS1_0ELS1_0EE8is_levelEN8LogLevel4typeE(i32 noundef 5)
  br i1 %33, label %35, label %34

34:                                               ; preds = %32
  br label %44

35:                                               ; preds = %32
  %36 = load ptr, ptr %2, align 8
  %37 = call noundef zeroext i1 @_ZNK15GenDCmdArgument6is_setEv(ptr noundef nonnull align 8 dereferenceable(51) %36)
  %38 = select i1 %37, ptr @_ZL17specified_val_msg, ptr @_ZL15default_val_msg
  %39 = load ptr, ptr %2, align 8
  %40 = call noundef ptr @_ZNK15GenDCmdArgument4nameEv(ptr noundef nonnull align 8 dereferenceable(51) %39)
  %41 = load ptr, ptr %2, align 8
  call void @_ZNK12DCmdArgumentI18MemorySizeArgumentE5valueEv(ptr dead_on_unwind writable sret(%class.MemorySizeArgument) align 8 %7, ptr noundef nonnull align 8 dereferenceable(80) %41)
  %42 = getelementptr inbounds %class.MemorySizeArgument, ptr %7, i32 0, i32 1
  %43 = load i64, ptr %42, align 8
  call void (ptr, ...) @_ZN7LogImplILN6LogTag4typeE5ELS1_0ELS1_0ELS1_0ELS1_0ELS1_0EE5writeILN8LogLevel4typeE5EEEvPKcz(ptr noundef @.str.99, ptr noundef %38, ptr noundef %40, i64 noundef %43)
  br label %44

44:                                               ; preds = %35, %34, %31
  ret void
}

; Function Attrs: mustprogress nounwind uwtable
define linkonce_odr hidden noundef i64 @_ZNK12DCmdArgumentIlE5valueEv(ptr noundef nonnull align 8 dereferenceable(64) %0) #1 comdat align 2 {
  %2 = alloca ptr, align 8
  store ptr %0, ptr %2, align 8
  %3 = load ptr, ptr %2, align 8
  %4 = getelementptr inbounds %class.DCmdArgument.1, ptr %3, i32 0, i32 1
  %5 = load i64, ptr %4, align 8
  ret i64 %5
}

; Function Attrs: mustprogress nounwind uwtable
define linkonce_odr hidden void @_ZNK12DCmdArgumentI18MemorySizeArgumentE5valueEv(ptr dead_on_unwind noalias writable sret(%class.MemorySizeArgument) align 8 %0, ptr noundef nonnull align 8 dereferenceable(80) %1) #1 comdat align 2 {
  %3 = alloca ptr, align 8
  store ptr %1, ptr %3, align 8
  %4 = load ptr, ptr %3, align 8
  %5 = getelementptr inbounds %class.DCmdArgument.0, ptr %4, i32 0, i32 1
  call void @llvm.memcpy.p0.p0.i64(ptr align 8 %0, ptr align 8 %5, i64 24, i1 false)
  ret void
}

; Function Attrs: mustprogress nounwind uwtable
define internal noundef zeroext i1 @_ZL19check_for_ambiguityI12DCmdArgumentI18MemorySizeArgumentES0_IlEEbRT_S5_RT0_(ptr noundef nonnull align 8 dereferenceable(80) %0, ptr noundef nonnull align 8 dereferenceable(80) %1, ptr noundef nonnull align 8 dereferenceable(64) %2) #1 {
  %4 = alloca i1, align 1
  %5 = alloca ptr, align 8
  %6 = alloca ptr, align 8
  %7 = alloca ptr, align 8
  %8 = alloca i64, align 8
  %9 = alloca %class.MemorySizeArgument, align 8
  %10 = alloca %class.MemorySizeArgument, align 8
  store ptr %0, ptr %5, align 8
  store ptr %1, ptr %6, align 8
  store ptr %2, ptr %7, align 8
  %11 = load ptr, ptr %6, align 8
  call void @_ZNK12DCmdArgumentI18MemorySizeArgumentE5valueEv(ptr dead_on_unwind writable sret(%class.MemorySizeArgument) align 8 %9, ptr noundef nonnull align 8 dereferenceable(80) %11)
  %12 = getelementptr inbounds %class.MemorySizeArgument, ptr %9, i32 0, i32 0
  %13 = load i64, ptr %12, align 8
  %14 = load ptr, ptr %7, align 8
  %15 = call noundef i64 @_ZNK12DCmdArgumentIlE5valueEv(ptr noundef nonnull align 8 dereferenceable(64) %14)
  %16 = mul i64 %13, %15
  store i64 %16, ptr %8, align 8
  %17 = load i64, ptr %8, align 8
  %18 = load ptr, ptr %5, align 8
  call void @_ZNK12DCmdArgumentI18MemorySizeArgumentE5valueEv(ptr dead_on_unwind writable sret(%class.MemorySizeArgument) align 8 %10, ptr noundef nonnull align 8 dereferenceable(80) %18)
  %19 = getelementptr inbounds %class.MemorySizeArgument, ptr %10, i32 0, i32 0
  %20 = load i64, ptr %19, align 8
  %21 = icmp ne i64 %17, %20
  br i1 %21, label %22, label %51

22:                                               ; preds = %3
  %23 = load ptr, ptr %6, align 8
  call void @_ZL13log_set_valueI12DCmdArgumentI18MemorySizeArgumentEEvRT_(ptr noundef nonnull align 8 dereferenceable(80) %23)
  %24 = call noundef zeroext i1 @_ZN7LogImplILN6LogTag4typeE5ELS1_0ELS1_0ELS1_0ELS1_0ELS1_0EE8is_levelEN8LogLevel4typeE(i32 noundef 5)
  br i1 %24, label %26, label %25

25:                                               ; preds = %22
  br label %31

26:                                               ; preds = %22
  %27 = load ptr, ptr %7, align 8
  %28 = call noundef ptr @_ZNK15GenDCmdArgument4nameEv(ptr noundef nonnull align 8 dereferenceable(51) %27)
  %29 = load ptr, ptr %7, align 8
  %30 = call noundef i64 @_ZNK12DCmdArgumentIlE5valueEv(ptr noundef nonnull align 8 dereferenceable(64) %29)
  call void (ptr, ...) @_ZN7LogImplILN6LogTag4typeE5ELS1_0ELS1_0ELS1_0ELS1_0ELS1_0EE5writeILN8LogLevel4typeE5EEEvPKcz(ptr noundef @.str.83, ptr noundef %28, i64 noundef %30)
  br label %31

31:                                               ; preds = %26, %25
  %32 = load ptr, ptr %5, align 8
  call void @_ZL13log_set_valueI12DCmdArgumentI18MemorySizeArgumentEEvRT_(ptr noundef nonnull align 8 dereferenceable(80) %32)
  %33 = call noundef zeroext i1 @_ZN7LogImplILN6LogTag4typeE5ELS1_0ELS1_0ELS1_0ELS1_0ELS1_0EE8is_levelEN8LogLevel4typeE(i32 noundef 5)
  br i1 %33, label %35, label %34

34:                                               ; preds = %31
  br label %36

35:                                               ; preds = %31
  call void (ptr, ...) @_ZN7LogImplILN6LogTag4typeE5ELS1_0ELS1_0ELS1_0ELS1_0ELS1_0EE5writeILN8LogLevel4typeE5EEEvPKcz(ptr noundef @.str.100)
  br label %36

36:                                               ; preds = %35, %34
  %37 = call noundef zeroext i1 @_ZN7LogImplILN6LogTag4typeE5ELS1_0ELS1_0ELS1_0ELS1_0ELS1_0EE8is_levelEN8LogLevel4typeE(i32 noundef 5)
  br i1 %37, label %39, label %38

38:                                               ; preds = %36
  br label %46

39:                                               ; preds = %36
  %40 = load ptr, ptr %6, align 8
  %41 = call noundef ptr @_ZNK15GenDCmdArgument4nameEv(ptr noundef nonnull align 8 dereferenceable(51) %40)
  %42 = load ptr, ptr %7, align 8
  %43 = call noundef ptr @_ZNK15GenDCmdArgument4nameEv(ptr noundef nonnull align 8 dereferenceable(51) %42)
  %44 = load ptr, ptr %5, align 8
  %45 = call noundef ptr @_ZNK15GenDCmdArgument4nameEv(ptr noundef nonnull align 8 dereferenceable(51) %44)
  call void (ptr, ...) @_ZN7LogImplILN6LogTag4typeE5ELS1_0ELS1_0ELS1_0ELS1_0ELS1_0EE5writeILN8LogLevel4typeE5EEEvPKcz(ptr noundef @.str.101, ptr noundef %41, ptr noundef %43, ptr noundef %45)
  br label %46

46:                                               ; preds = %39, %38
  %47 = call noundef zeroext i1 @_ZN7LogImplILN6LogTag4typeE5ELS1_0ELS1_0ELS1_0ELS1_0ELS1_0EE8is_levelEN8LogLevel4typeE(i32 noundef 5)
  br i1 %47, label %49, label %48

48:                                               ; preds = %46
  br label %50

49:                                               ; preds = %46
  call void (ptr, ...) @_ZN7LogImplILN6LogTag4typeE5ELS1_0ELS1_0ELS1_0ELS1_0ELS1_0EE5writeILN8LogLevel4typeE5EEEvPKcz(ptr noundef @.str.102)
  br label %50

50:                                               ; preds = %49, %48
  store i1 false, ptr %4, align 1
  br label %52

51:                                               ; preds = %3
  store i1 true, ptr %4, align 1
  br label %52

52:                                               ; preds = %51, %50
  %53 = load i1, ptr %4, align 1
  ret i1 %53
}