; Function Attrs: mustprogress nounwind uwtable
define internal fastcc noundef zeroext i1 @_ZL19check_for_ambiguityI12DCmdArgumentI18MemorySizeArgumentES0_IlEEbRT_S5_RT0_() unnamed_addr #3 {
  %.sroa.01.0.copyload = load i64, ptr getelementptr inbounds (i8, ptr @_ZL22_dcmd_globalbuffersize, i64 56), align 8
  %1 = load i64, ptr getelementptr inbounds (i8, ptr @_ZL22_dcmd_numglobalbuffers, i64 56), align 8
  %2 = mul i64 %1, %.sroa.01.0.copyload
  %.sroa.0.0.copyload = load i64, ptr getelementptr inbounds (i8, ptr @_ZL16_dcmd_memorysize, i64 56), align 8
  %.not = icmp eq i64 %2, %.sroa.0.0.copyload
  br i1 %.not, label %48, label %3

3:                                                ; preds = %0
  %.sroa.116.0.copyload.i = load i64, ptr getelementptr inbounds (i8, ptr @_ZL22_dcmd_globalbuffersize, i64 64), align 8
  %.not.i = icmp eq i64 %.sroa.01.0.copyload, %.sroa.116.0.copyload.i
  %4 = load volatile ptr, ptr getelementptr inbounds (i8, ptr @_ZN16LogTagSetMappingILN6LogTag4typeE5ELS1_0ELS1_0ELS1_0ELS1_0ELS1_0EE7_tagsetE, i64 80), align 8
  %.not21.i = icmp eq ptr %4, null
  br i1 %.not.i, label %12, label %5

5:                                                ; preds = %3
  br i1 %.not21.i, label %_ZL13log_set_valueI12DCmdArgumentI18MemorySizeArgumentEEvRT_.exit, label %6

6:                                                ; preds = %5
  %7 = load i8, ptr getelementptr inbounds (i8, ptr @_ZL22_dcmd_globalbuffersize, i64 48), align 8
  %8 = trunc i8 %7 to i1
  %9 = select i1 %8, ptr @_ZL17specified_val_msg, ptr @_ZL15default_val_msg
  %10 = load ptr, ptr getelementptr inbounds (i8, ptr @_ZL22_dcmd_globalbuffersize, i64 16), align 8
  %.sroa.110.0.copyload.i = load i8, ptr getelementptr inbounds (i8, ptr @_ZL22_dcmd_globalbuffersize, i64 72), align 8
  %11 = sext i8 %.sroa.110.0.copyload.i to i32
  tail call void (ptr, ...) @_ZN7LogImplILN6LogTag4typeE5ELS1_0ELS1_0ELS1_0ELS1_0ELS1_0EE5writeILN8LogLevel4typeE5EEEvPKcz(ptr noundef nonnull @.str.98, ptr noundef nonnull %9, ptr noundef %10, i64 noundef %.sroa.116.0.copyload.i, i32 noundef %11)
  br label %_ZL13log_set_valueI12DCmdArgumentI18MemorySizeArgumentEEvRT_.exit

12:                                               ; preds = %3
  br i1 %.not21.i, label %_ZL13log_set_valueI12DCmdArgumentI18MemorySizeArgumentEEvRT_.exit, label %13

13:                                               ; preds = %12
  %14 = load i8, ptr getelementptr inbounds (i8, ptr @_ZL22_dcmd_globalbuffersize, i64 48), align 8
  %15 = trunc i8 %14 to i1
  %16 = select i1 %15, ptr @_ZL17specified_val_msg, ptr @_ZL15default_val_msg
  %17 = load ptr, ptr getelementptr inbounds (i8, ptr @_ZL22_dcmd_globalbuffersize, i64 16), align 8
  tail call void (ptr, ...) @_ZN7LogImplILN6LogTag4typeE5ELS1_0ELS1_0ELS1_0ELS1_0ELS1_0EE5writeILN8LogLevel4typeE5EEEvPKcz(ptr noundef nonnull @.str.99, ptr noundef nonnull %16, ptr noundef %17, i64 noundef %.sroa.01.0.copyload)
  br label %_ZL13log_set_valueI12DCmdArgumentI18MemorySizeArgumentEEvRT_.exit

_ZL13log_set_valueI12DCmdArgumentI18MemorySizeArgumentEEvRT_.exit: ; preds = %5, %6, %12, %13
  %18 = load volatile ptr, ptr getelementptr inbounds (i8, ptr @_ZN16LogTagSetMappingILN6LogTag4typeE5ELS1_0ELS1_0ELS1_0ELS1_0ELS1_0EE7_tagsetE, i64 80), align 8
  %.not3 = icmp eq ptr %18, null
  br i1 %.not3, label %22, label %19

19:                                               ; preds = %_ZL13log_set_valueI12DCmdArgumentI18MemorySizeArgumentEEvRT_.exit
  %20 = load ptr, ptr getelementptr inbounds (i8, ptr @_ZL22_dcmd_numglobalbuffers, i64 16), align 8
  %21 = load i64, ptr getelementptr inbounds (i8, ptr @_ZL22_dcmd_numglobalbuffers, i64 56), align 8
  tail call void (ptr, ...) @_ZN7LogImplILN6LogTag4typeE5ELS1_0ELS1_0ELS1_0ELS1_0ELS1_0EE5writeILN8LogLevel4typeE5EEEvPKcz(ptr noundef nonnull @.str.83, ptr noundef %20, i64 noundef %21)
  br label %22

22:                                               ; preds = %_ZL13log_set_valueI12DCmdArgumentI18MemorySizeArgumentEEvRT_.exit, %19
  %.sroa.018.0.copyload.i11 = load i64, ptr getelementptr inbounds (i8, ptr @_ZL16_dcmd_memorysize, i64 56), align 8
  %.sroa.116.0.copyload.i12 = load i64, ptr getelementptr inbounds (i8, ptr @_ZL16_dcmd_memorysize, i64 64), align 8
  %.not.i13 = icmp eq i64 %.sroa.018.0.copyload.i11, %.sroa.116.0.copyload.i12
  %23 = load volatile ptr, ptr getelementptr inbounds (i8, ptr @_ZN16LogTagSetMappingILN6LogTag4typeE5ELS1_0ELS1_0ELS1_0ELS1_0ELS1_0EE7_tagsetE, i64 80), align 8
  %.not21.i14 = icmp eq ptr %23, null
  br i1 %.not.i13, label %31, label %24

24:                                               ; preds = %22
  br i1 %.not21.i14, label %_ZL13log_set_valueI12DCmdArgumentI18MemorySizeArgumentEEvRT_.exit16, label %25

25:                                               ; preds = %24
  %26 = load i8, ptr getelementptr inbounds (i8, ptr @_ZL16_dcmd_memorysize, i64 48), align 8
  %27 = trunc i8 %26 to i1
  %28 = select i1 %27, ptr @_ZL17specified_val_msg, ptr @_ZL15default_val_msg
  %29 = load ptr, ptr getelementptr inbounds (i8, ptr @_ZL16_dcmd_memorysize, i64 16), align 8
  %.sroa.110.0.copyload.i15 = load i8, ptr getelementptr inbounds (i8, ptr @_ZL16_dcmd_memorysize, i64 72), align 8
  %30 = sext i8 %.sroa.110.0.copyload.i15 to i32
  tail call void (ptr, ...) @_ZN7LogImplILN6LogTag4typeE5ELS1_0ELS1_0ELS1_0ELS1_0ELS1_0EE5writeILN8LogLevel4typeE5EEEvPKcz(ptr noundef nonnull @.str.98, ptr noundef nonnull %28, ptr noundef %29, i64 noundef %.sroa.116.0.copyload.i12, i32 noundef %30)
  br label %_ZL13log_set_valueI12DCmdArgumentI18MemorySizeArgumentEEvRT_.exit16

31:                                               ; preds = %22
  br i1 %.not21.i14, label %_ZL13log_set_valueI12DCmdArgumentI18MemorySizeArgumentEEvRT_.exit16, label %32

32:                                               ; preds = %31
  %33 = load i8, ptr getelementptr inbounds (i8, ptr @_ZL16_dcmd_memorysize, i64 48), align 8
  %34 = trunc i8 %33 to i1
  %35 = select i1 %34, ptr @_ZL17specified_val_msg, ptr @_ZL15default_val_msg
  %36 = load ptr, ptr getelementptr inbounds (i8, ptr @_ZL16_dcmd_memorysize, i64 16), align 8
  tail call void (ptr, ...) @_ZN7LogImplILN6LogTag4typeE5ELS1_0ELS1_0ELS1_0ELS1_0ELS1_0EE5writeILN8LogLevel4typeE5EEEvPKcz(ptr noundef nonnull @.str.99, ptr noundef nonnull %35, ptr noundef %36, i64 noundef %.sroa.018.0.copyload.i11)
  br label %_ZL13log_set_valueI12DCmdArgumentI18MemorySizeArgumentEEvRT_.exit16

_ZL13log_set_valueI12DCmdArgumentI18MemorySizeArgumentEEvRT_.exit16: ; preds = %24, %25, %31, %32
  %37 = load volatile ptr, ptr getelementptr inbounds (i8, ptr @_ZN16LogTagSetMappingILN6LogTag4typeE5ELS1_0ELS1_0ELS1_0ELS1_0ELS1_0EE7_tagsetE, i64 80), align 8
  %.not4 = icmp eq ptr %37, null
  br i1 %.not4, label %39, label %38

38:                                               ; preds = %_ZL13log_set_valueI12DCmdArgumentI18MemorySizeArgumentEEvRT_.exit16
  tail call void (ptr, ...) @_ZN7LogImplILN6LogTag4typeE5ELS1_0ELS1_0ELS1_0ELS1_0ELS1_0EE5writeILN8LogLevel4typeE5EEEvPKcz(ptr noundef nonnull @.str.100)
  br label %39

39:                                               ; preds = %_ZL13log_set_valueI12DCmdArgumentI18MemorySizeArgumentEEvRT_.exit16, %38
  %40 = load volatile ptr, ptr getelementptr inbounds (i8, ptr @_ZN16LogTagSetMappingILN6LogTag4typeE5ELS1_0ELS1_0ELS1_0ELS1_0ELS1_0EE7_tagsetE, i64 80), align 8
  %.not5 = icmp eq ptr %40, null
  br i1 %.not5, label %45, label %41

41:                                               ; preds = %39
  %42 = load ptr, ptr getelementptr inbounds (i8, ptr @_ZL22_dcmd_globalbuffersize, i64 16), align 8
  %43 = load ptr, ptr getelementptr inbounds (i8, ptr @_ZL22_dcmd_numglobalbuffers, i64 16), align 8
  %44 = load ptr, ptr getelementptr inbounds (i8, ptr @_ZL16_dcmd_memorysize, i64 16), align 8
  tail call void (ptr, ...) @_ZN7LogImplILN6LogTag4typeE5ELS1_0ELS1_0ELS1_0ELS1_0ELS1_0EE5writeILN8LogLevel4typeE5EEEvPKcz(ptr noundef nonnull @.str.101, ptr noundef %42, ptr noundef %43, ptr noundef %44)
  br label %45

45:                                               ; preds = %39, %41
  %46 = load volatile ptr, ptr getelementptr inbounds (i8, ptr @_ZN16LogTagSetMappingILN6LogTag4typeE5ELS1_0ELS1_0ELS1_0ELS1_0ELS1_0EE7_tagsetE, i64 80), align 8
  %.not6 = icmp eq ptr %46, null
  br i1 %.not6, label %48, label %47

47:                                               ; preds = %45
  tail call void (ptr, ...) @_ZN7LogImplILN6LogTag4typeE5ELS1_0ELS1_0ELS1_0ELS1_0ELS1_0EE5writeILN8LogLevel4typeE5EEEvPKcz(ptr noundef nonnull @.str.102)
  br label %48

48:                                               ; preds = %0, %47, %45
  ret i1 %.not
}